target datalayout = "e-m:e-p270:32:32-p271:32:32-p272:64:64-i64:64-i128:128-f80:128-n8:16:32:64-S128"
target triple = "x86_64-pc-linux-gnu"

%"class.mold::MultiGlob" = type <{ %"class.std::vector.0", %"class.std::unique_ptr", %"class.std::vector.7", %"struct.std::once_flag", i8, i8, [2 x i8] }>
%"class.std::vector.0" = type { %"struct.std::_Vector_base.1" }
%"struct.std::_Vector_base.1" = type { %"struct.std::_Vector_base<std::__cxx11::basic_string<char>, std::allocator<std::__cxx11::basic_string<char>>>::_Vector_impl" }
%"struct.std::_Vector_base<std::__cxx11::basic_string<char>, std::allocator<std::__cxx11::basic_string<char>>>::_Vector_impl" = type { %"struct.std::_Vector_base<std::__cxx11::basic_string<char>, std::allocator<std::__cxx11::basic_string<char>>>::_Vector_impl_data" }
%"struct.std::_Vector_base<std::__cxx11::basic_string<char>, std::allocator<std::__cxx11::basic_string<char>>>::_Vector_impl_data" = type { ptr, ptr, ptr }
%"class.std::unique_ptr" = type { %"struct.std::__uniq_ptr_data" }
%"struct.std::__uniq_ptr_data" = type { %"class.std::__uniq_ptr_impl" }
%"class.std::__uniq_ptr_impl" = type { %"class.std::tuple" }
%"class.std::tuple" = type { %"struct.std::_Tuple_impl" }
%"struct.std::_Tuple_impl" = type { %"struct.std::_Head_base.6" }
%"struct.std::_Head_base.6" = type { ptr }
%"class.std::vector.7" = type { %"struct.std::_Vector_base.8" }
%"struct.std::_Vector_base.8" = type { %"struct.std::_Vector_base<std::pair<mold::Glob, long>, std::allocator<std::pair<mold::Glob, long>>>::_Vector_impl" }
%"struct.std::_Vector_base<std::pair<mold::Glob, long>, std::allocator<std::pair<mold::Glob, long>>>::_Vector_impl" = type { %"struct.std::_Vector_base<std::pair<mold::Glob, long>, std::allocator<std::pair<mold::Glob, long>>>::_Vector_impl_data" }
%"struct.std::_Vector_base<std::pair<mold::Glob, long>, std::allocator<std::pair<mold::Glob, long>>>::_Vector_impl_data" = type { ptr, ptr, ptr }
%"struct.std::once_flag" = type { i32 }
%"struct.mold::MultiGlob::TrieNode" = type { i64, ptr, [256 x %"class.std::unique_ptr"] }

; Function Attrs: mustprogress nounwind
define linkonce_odr dso_local noundef nonnull align 8 dereferenceable(8) ptr @_ZNSt10_Head_baseILm0EPN4mold9MultiGlob8TrieNodeELb0EE7_M_headERKS4_(ptr noundef nonnull align 8 dereferenceable(8) %0) #4 comdat align 2 {
  %2 = alloca ptr, align 8
  store ptr %0, ptr %2, align 8, !tbaa !1168
  %3 = load ptr, ptr %2, align 8, !tbaa !1168
  %4 = getelementptr inbounds nuw %"struct.std::_Head_base.6", ptr %3, i32 0, i32 0
  ret ptr %4
}

; Function Attrs: mustprogress nounwind
define linkonce_odr dso_local noundef nonnull align 8 dereferenceable(8) ptr @_ZNSt11_Tuple_implILm0EJPN4mold9MultiGlob8TrieNodeESt14default_deleteIS2_EEE7_M_headERKS6_(ptr noundef nonnull align 8 dereferenceable(8) %0) #4 comdat align 2 {
  %2 = alloca ptr, align 8
  store ptr %0, ptr %2, align 8, !tbaa !1164
  %3 = load ptr, ptr %2, align 8, !tbaa !1164
  %4 = call noundef nonnull align 8 dereferenceable(8) ptr @_ZNSt10_Head_baseILm0EPN4mold9MultiGlob8TrieNodeELb0EE7_M_headERKS4_(ptr noundef nonnull align 8 dereferenceable(8) %3) #3
  ret ptr %4
}

; Function Attrs: mustprogress nounwind
define linkonce_odr dso_local noundef nonnull align 8 dereferenceable(8) ptr @_ZSt12__get_helperILm0EPN4mold9MultiGlob8TrieNodeEJSt14default_deleteIS2_EEERKT0_RKSt11_Tuple_implIXT_EJS6_DpT1_EE(ptr noundef nonnull align 8 dereferenceable(8) %0) #4 comdat {
  %2 = alloca ptr, align 8
  store ptr %0, ptr %2, align 8, !tbaa !1164
  %3 = load ptr, ptr %2, align 8, !tbaa !1164
  %4 = call noundef nonnull align 8 dereferenceable(8) ptr @_ZNSt11_Tuple_implILm0EJPN4mold9MultiGlob8TrieNodeESt14default_deleteIS2_EEE7_M_headERKS6_(ptr noundef nonnull align 8 dereferenceable(8) %3) #3
  ret ptr %4
}

; Function Attrs: mustprogress nounwind
define linkonce_odr dso_local noundef nonnull align 8 dereferenceable(8) ptr @_ZSt3getILm0EJPN4mold9MultiGlob8TrieNodeESt14default_deleteIS2_EEERKNSt13tuple_elementIXT_ESt5tupleIJDpT0_EEE4typeERKSA_(ptr noundef nonnull align 8 dereferenceable(8) %0) #4 comdat {
  %2 = alloca ptr, align 8
  store ptr %0, ptr %2, align 8, !tbaa !1162
  %3 = load ptr, ptr %2, align 8, !tbaa !1162
  %4 = call noundef nonnull align 8 dereferenceable(8) ptr @_ZSt12__get_helperILm0EPN4mold9MultiGlob8TrieNodeEJSt14default_deleteIS2_EEERKT0_RKSt11_Tuple_implIXT_EJS6_DpT1_EE(ptr noundef nonnull align 8 dereferenceable(8) %3) #3
  ret ptr %4
}

; Function Attrs: mustprogress nounwind
define linkonce_odr dso_local noundef ptr @_ZNKSt15__uniq_ptr_implIN4mold9MultiGlob8TrieNodeESt14default_deleteIS2_EE6_M_ptrEv(ptr noundef nonnull align 8 dereferenceable(8) %0) #4 comdat align 2 {
  %2 = alloca ptr, align 8
  store ptr %0, ptr %2, align 8, !tbaa !1160
  %3 = load ptr, ptr %2, align 8
  %4 = getelementptr inbounds nuw %"class.std::__uniq_ptr_impl", ptr %3, i32 0, i32 0
  %5 = call noundef nonnull align 8 dereferenceable(8) ptr @_ZSt3getILm0EJPN4mold9MultiGlob8TrieNodeESt14default_deleteIS2_EEERKNSt13tuple_elementIXT_ESt5tupleIJDpT0_EEE4typeERKSA_(ptr noundef nonnull align 8 dereferenceable(8) %4) #3
  %6 = load ptr, ptr %5, align 8, !tbaa !33
  ret ptr %6
}

; Function Attrs: mustprogress nounwind
define linkonce_odr dso_local noundef ptr @_ZNKSt10unique_ptrIN4mold9MultiGlob8TrieNodeESt14default_deleteIS2_EE3getEv(ptr noundef nonnull align 8 dereferenceable(8) %0) #4 comdat align 2 {
  %2 = alloca ptr, align 8
  store ptr %0, ptr %2, align 8, !tbaa !31
  %3 = load ptr, ptr %2, align 8
  %4 = getelementptr inbounds nuw %"class.std::unique_ptr", ptr %3, i32 0, i32 0
  %5 = call noundef ptr @_ZNKSt15__uniq_ptr_implIN4mold9MultiGlob8TrieNodeESt14default_deleteIS2_EE6_M_ptrEv(ptr noundef nonnull align 8 dereferenceable(8) %4) #3
  ret ptr %5
}

; Function Attrs: mustprogress nounwind
define linkonce_odr dso_local noundef ptr @_ZNKSt10unique_ptrIN4mold9MultiGlob8TrieNodeESt14default_deleteIS2_EEptEv(ptr noundef nonnull align 8 dereferenceable(8) %0) #4 comdat align 2 {
  %2 = alloca ptr, align 8
  store ptr %0, ptr %2, align 8, !tbaa !31
  %3 = load ptr, ptr %2, align 8
  %4 = call noundef ptr @_ZNKSt10unique_ptrIN4mold9MultiGlob8TrieNodeESt14default_deleteIS2_EE3getEv(ptr noundef nonnull align 8 dereferenceable(8) %3) #3
  ret ptr %4
}

; Function Attrs: mustprogress nounwind
define linkonce_odr dso_local noundef nonnull align 8 dereferenceable(2064) ptr @_ZNKSt10unique_ptrIN4mold9MultiGlob8TrieNodeESt14default_deleteIS2_EEdeEv(ptr noundef nonnull align 8 dereferenceable(8) %0) #4 comdat align 2 {
  %2 = alloca ptr, align 8
  store ptr %0, ptr %2, align 8, !tbaa !31
  %3 = load ptr, ptr %2, align 8
  br label %4

4:                                                ; preds = %1
  br label %5

5:                                                ; preds = %4
  %6 = call noundef ptr @_ZNKSt10unique_ptrIN4mold9MultiGlob8TrieNodeESt14default_deleteIS2_EE3getEv(ptr noundef nonnull align 8 dereferenceable(8) %3) #3
  ret ptr %6
}

; Function Attrs: mustprogress nounwind
define linkonce_odr dso_local noundef zeroext i1 @_ZNKSt10unique_ptrIN4mold9MultiGlob8TrieNodeESt14default_deleteIS2_EEcvbEv(ptr noundef nonnull align 8 dereferenceable(8) %0) #4 comdat align 2 {
  %2 = alloca ptr, align 8
  store ptr %0, ptr %2, align 8, !tbaa !31
  %3 = load ptr, ptr %2, align 8
  %4 = call noundef ptr @_ZNKSt10unique_ptrIN4mold9MultiGlob8TrieNodeESt14default_deleteIS2_EE3getEv(ptr noundef nonnull align 8 dereferenceable(8) %3) #3
  %5 = icmp eq ptr %4, null
  %6 = select i1 %5, i1 false, i1 true
  ret i1 %6
}

; Function Attrs: mustprogress nounwind
define dso_local void @_ZN4mold9MultiGlob7compileEv(ptr noundef nonnull align 8 dereferenceable(62) %0) #4 align 2 {
  %2 = alloca ptr, align 8
  %3 = alloca i64, align 8
  %4 = alloca i32, align 4
  store ptr %0, ptr %2, align 8, !tbaa !13
  %5 = load ptr, ptr %2, align 8
  %6 = getelementptr inbounds nuw %"class.mold::MultiGlob", ptr %5, i32 0, i32 4
  store i8 1, ptr %6, align 4, !tbaa !98
  %7 = getelementptr inbounds nuw %"class.mold::MultiGlob", ptr %5, i32 0, i32 1
  %8 = call noundef zeroext i1 @_ZNKSt10unique_ptrIN4mold9MultiGlob8TrieNodeESt14default_deleteIS2_EEcvbEv(ptr noundef nonnull align 8 dereferenceable(8) %7) #3
  br i1 %8, label %9, label %32

9:                                                ; preds = %1
  %10 = getelementptr inbounds nuw %"class.mold::MultiGlob", ptr %5, i32 0, i32 1
  %11 = call noundef nonnull align 8 dereferenceable(2064) ptr @_ZNKSt10unique_ptrIN4mold9MultiGlob8TrieNodeESt14default_deleteIS2_EEdeEv(ptr noundef nonnull align 8 dereferenceable(8) %10) #3
  call void @_ZN4mold9MultiGlob16fix_suffix_linksERNS0_8TrieNodeE(ptr noundef nonnull align 8 dereferenceable(62) %5, ptr noundef nonnull align 8 dereferenceable(2064) %11)
  call void @_ZN4mold9MultiGlob10fix_valuesEv(ptr noundef nonnull align 8 dereferenceable(62) %5)
  %12 = getelementptr inbounds nuw %"class.mold::MultiGlob", ptr %5, i32 0, i32 5
  store i8 1, ptr %12, align 1, !tbaa !42
  call void @llvm.lifetime.start.p0(i64 8, ptr %3) #3
  store i64 1, ptr %3, align 8, !tbaa !17
  br label %13

13:                                               ; preds = %27, %9
  %14 = load i64, ptr %3, align 8, !tbaa !17
  %15 = icmp slt i64 %14, 256
  br i1 %15, label %17, label %16

16:                                               ; preds = %13
  store i32 2, ptr %4, align 4
  br label %30

17:                                               ; preds = %13
  %18 = getelementptr inbounds nuw %"class.mold::MultiGlob", ptr %5, i32 0, i32 1
  %19 = call noundef ptr @_ZNKSt10unique_ptrIN4mold9MultiGlob8TrieNodeESt14default_deleteIS2_EEptEv(ptr noundef nonnull align 8 dereferenceable(8) %18) #3
  %20 = getelementptr inbounds nuw %"struct.mold::MultiGlob::TrieNode", ptr %19, i32 0, i32 2
  %21 = load i64, ptr %3, align 8, !tbaa !17
  %22 = getelementptr inbounds [256 x %"class.std::unique_ptr"], ptr %20, i64 0, i64 %21
  %23 = call noundef zeroext i1 @_ZNKSt10unique_ptrIN4mold9MultiGlob8TrieNodeESt14default_deleteIS2_EEcvbEv(ptr noundef nonnull align 8 dereferenceable(8) %22) #3
  br i1 %23, label %24, label %26

24:                                               ; preds = %17
  %25 = getelementptr inbounds nuw %"class.mold::MultiGlob", ptr %5, i32 0, i32 5
  store i8 0, ptr %25, align 1, !tbaa !42
  store i32 2, ptr %4, align 4
  br label %30

26:                                               ; preds = %17
  br label %27

27:                                               ; preds = %26
  %28 = load i64, ptr %3, align 8, !tbaa !17
  %29 = add nsw i64 %28, 1
  store i64 %29, ptr %3, align 8, !tbaa !17
  br label %13, !llvm.loop !99

30:                                               ; preds = %24, %16
  call void @llvm.lifetime.end.p0(i64 8, ptr %3) #3
  br label %31

31:                                               ; preds = %30
  br label %32

32:                                               ; preds = %31, %1
  ret void
}