; Function Attrs: mustprogress nounwind
define dso_local void @_ZN4mold9MultiGlob7compileEv(ptr noundef nonnull align 8 captures(none) dereferenceable(62) initializes((60, 61)) %0) local_unnamed_addr #4 align 2 {
  %2 = getelementptr inbounds nuw i8, ptr %0, i64 60
  store i8 1, ptr %2, align 4, !tbaa !109
  %3 = getelementptr inbounds nuw i8, ptr %0, i64 24
  %4 = load ptr, ptr %3, align 8, !tbaa !15
  %.not = icmp eq ptr %4, null
  br i1 %.not, label %.loopexit, label %5

5:                                                ; preds = %1
  tail call void @_ZN4mold9MultiGlob16fix_suffix_linksERNS0_8TrieNodeE(ptr noundef nonnull align 8 dereferenceable(62) %0, ptr noundef nonnull align 8 dereferenceable(2064) %4)
  tail call void @_ZN4mold9MultiGlob10fix_valuesEv(ptr noundef nonnull align 8 dereferenceable(62) %0)
  %6 = getelementptr inbounds nuw i8, ptr %0, i64 61
  store i8 1, ptr %6, align 1, !tbaa !23
  %7 = load ptr, ptr %3, align 8, !tbaa !15
  %8 = getelementptr inbounds nuw i8, ptr %7, i64 16
  br label %11

9:                                                ; preds = %11
  %10 = add nuw nsw i64 %.04, 1
  %exitcond.not = icmp eq i64 %10, 256
  br i1 %exitcond.not, label %.loopexit, label %11, !llvm.loop !110

11:                                               ; preds = %5, %9
  %.04 = phi i64 [ 1, %5 ], [ %10, %9 ]
  %12 = getelementptr inbounds nuw [256 x %"class.std::unique_ptr"], ptr %8, i64 0, i64 %.04
  %13 = load ptr, ptr %12, align 8, !tbaa !15
  %.not3 = icmp eq ptr %13, null
  br i1 %.not3, label %9, label %14

14:                                               ; preds = %11
  store i8 0, ptr %6, align 1, !tbaa !23
  br label %.loopexit

.loopexit:                                        ; preds = %9, %14, %1
  ret void
}